; Function Attrs: mustprogress nounwind uwtable
define dso_local void @LLVMMoveToNextSymbol(ptr noundef %0) local_unnamed_addr #0 {
  %2 = getelementptr inbounds nuw i8, ptr %0, i64 8
  %3 = load ptr, ptr %2, align 8
  %4 = load ptr, ptr %3, align 8
  %5 = getelementptr inbounds i8, ptr %4, i64 24
  %6 = load ptr, ptr %5, align 8
  tail call void %6(ptr noundef nonnull align 8 dereferenceable(48) %3, ptr noundef nonnull align 8 dereferenceable(8) %0) #17
  ret void
}